target datalayout = "e-m:e-p270:32:32-p271:32:32-p272:64:64-i64:64-i128:128-f80:128-n8:16:32:64-S128"
target triple = "x86_64-pc-linux-gnu"

%struct.Expr = type { i32 }
%union.ListCell = type { ptr }
%struct.Node = type { i32 }
%struct.Param = type { %struct.Expr, i32, i32, i32, i32, i32, i32 }

; Function Attrs: inlinehint nounwind uwtable
define internal ptr @newNode(i64 noundef %0, i32 noundef %1) #2 {
  %3 = alloca i64, align 8
  %4 = alloca i32, align 4
  %5 = alloca ptr, align 8
  store i64 %0, ptr %3, align 8
  store i32 %1, ptr %4, align 4
  call void @llvm.lifetime.start.p0(i64 8, ptr %5) #7
  %6 = load i64, ptr %3, align 8
  %7 = call ptr @palloc0(i64 noundef %6)
  store ptr %7, ptr %5, align 8
  %8 = load i32, ptr %4, align 4
  %9 = load ptr, ptr %5, align 8
  %10 = getelementptr inbounds nuw %struct.Node, ptr %9, i32 0, i32 0
  store i32 %8, ptr %10, align 4
  %11 = load ptr, ptr %5, align 8
  call void @llvm.lifetime.end.p0(i64 8, ptr %5) #7
  ret ptr %11
}

; Function Attrs: nounwind uwtable
define internal ptr @make_agg_arg(i32 noundef %0, i32 noundef %1) #0 {
  %3 = alloca i32, align 4
  %4 = alloca i32, align 4
  %5 = alloca ptr, align 8
  store i32 %0, ptr %3, align 4
  store i32 %1, ptr %4, align 4
  call void @llvm.lifetime.start.p0(i64 8, ptr %5) #7
  %6 = call ptr @newNode(i64 noundef 28, i32 noundef 8)
  store ptr %6, ptr %5, align 8
  %7 = load ptr, ptr %5, align 8
  %8 = getelementptr inbounds nuw %struct.Param, ptr %7, i32 0, i32 1
  store i32 1, ptr %8, align 4
  %9 = load ptr, ptr %5, align 8
  %10 = getelementptr inbounds nuw %struct.Param, ptr %9, i32 0, i32 2
  store i32 -1, ptr %10, align 4
  %11 = load i32, ptr %3, align 4
  %12 = load ptr, ptr %5, align 8
  %13 = getelementptr inbounds nuw %struct.Param, ptr %12, i32 0, i32 3
  store i32 %11, ptr %13, align 4
  %14 = load ptr, ptr %5, align 8
  %15 = getelementptr inbounds nuw %struct.Param, ptr %14, i32 0, i32 4
  store i32 -1, ptr %15, align 4
  %16 = load i32, ptr %4, align 4
  %17 = load ptr, ptr %5, align 8
  %18 = getelementptr inbounds nuw %struct.Param, ptr %17, i32 0, i32 5
  store i32 %16, ptr %18, align 4
  %19 = load ptr, ptr %5, align 8
  %20 = getelementptr inbounds nuw %struct.Param, ptr %19, i32 0, i32 6
  store i32 -1, ptr %20, align 4
  %21 = load ptr, ptr %5, align 8
  call void @llvm.lifetime.end.p0(i64 8, ptr %5) #7
  ret ptr %21
}

; Function Attrs: nounwind uwtable
define dso_local void @build_aggregate_deserialfn_expr(i32 noundef %0, ptr noundef %1) #0 {
  %3 = alloca i32, align 4
  %4 = alloca ptr, align 8
  %5 = alloca ptr, align 8
  %6 = alloca ptr, align 8
  %7 = alloca %union.ListCell, align 8
  %8 = alloca %union.ListCell, align 8
  store i32 %0, ptr %3, align 4
  store ptr %1, ptr %4, align 8
  call void @llvm.lifetime.start.p0(i64 8, ptr %5) #7
  call void @llvm.lifetime.start.p0(i64 8, ptr %6) #7
  %9 = call ptr @make_agg_arg(i32 noundef 17, i32 noundef 0)
  store ptr %9, ptr %7, align 8
  %10 = call ptr @make_agg_arg(i32 noundef 2281, i32 noundef 0)
  store ptr %10, ptr %8, align 8
  %11 = getelementptr inbounds nuw %union.ListCell, ptr %7, i32 0, i32 0
  %12 = load ptr, ptr %11, align 8
  %13 = getelementptr inbounds nuw %union.ListCell, ptr %8, i32 0, i32 0
  %14 = load ptr, ptr %13, align 8
  %15 = call ptr @list_make2_impl(i32 noundef 1, ptr %12, ptr %14)
  store ptr %15, ptr %5, align 8
  %16 = load i32, ptr %3, align 4
  %17 = load ptr, ptr %5, align 8
  %18 = call ptr @makeFuncExpr(i32 noundef %16, i32 noundef 2281, ptr noundef %17, i32 noundef 0, i32 noundef 0, i32 noundef 0)
  store ptr %18, ptr %6, align 8
  %19 = load ptr, ptr %6, align 8
  %20 = load ptr, ptr %4, align 8
  store ptr %19, ptr %20, align 8
  call void @llvm.lifetime.end.p0(i64 8, ptr %6) #7
  call void @llvm.lifetime.end.p0(i64 8, ptr %5) #7
  ret void
}