; Function Attrs: nounwind uwtable
define dso_local void @build_aggregate_deserialfn_expr(i32 noundef %0, ptr noundef writeonly captures(none) initializes((0, 8)) %1) local_unnamed_addr #0 {
  %3 = tail call noundef ptr @palloc0(i64 noundef 28) #11
  store i32 8, ptr %3, align 4
  %4 = getelementptr inbounds nuw i8, ptr %3, i64 4
  store i32 1, ptr %4, align 4
  %5 = getelementptr inbounds nuw i8, ptr %3, i64 8
  store i32 -1, ptr %5, align 4
  %6 = getelementptr inbounds nuw i8, ptr %3, i64 12
  store i32 17, ptr %6, align 4
  %7 = getelementptr inbounds nuw i8, ptr %3, i64 16
  store i32 -1, ptr %7, align 4
  %8 = getelementptr inbounds nuw i8, ptr %3, i64 20
  store i32 0, ptr %8, align 4
  %9 = getelementptr inbounds nuw i8, ptr %3, i64 24
  store i32 -1, ptr %9, align 4
  %10 = tail call noundef ptr @palloc0(i64 noundef 28) #11
  store i32 8, ptr %10, align 4
  %11 = getelementptr inbounds nuw i8, ptr %10, i64 4
  store i32 1, ptr %11, align 4
  %12 = getelementptr inbounds nuw i8, ptr %10, i64 8
  store i32 -1, ptr %12, align 4
  %13 = getelementptr inbounds nuw i8, ptr %10, i64 12
  store i32 2281, ptr %13, align 4
  %14 = getelementptr inbounds nuw i8, ptr %10, i64 16
  store i32 -1, ptr %14, align 4
  %15 = getelementptr inbounds nuw i8, ptr %10, i64 20
  store i32 0, ptr %15, align 4
  %16 = getelementptr inbounds nuw i8, ptr %10, i64 24
  store i32 -1, ptr %16, align 4
  %17 = tail call ptr @list_make2_impl(i32 noundef 1, ptr nonnull %3, ptr nonnull %10) #11
  %18 = tail call ptr @makeFuncExpr(i32 noundef %0, i32 noundef 2281, ptr noundef %17, i32 noundef 0, i32 noundef 0, i32 noundef 0) #11
  store ptr %18, ptr %1, align 8
  ret void
}